target datalayout = "e-m:e-p270:32:32-p271:32:32-p272:64:64-i64:64-i128:128-f80:128-n8:16:32:64-S128"
target triple = "x86_64-pc-linux-gnu"

%struct.AVBPrint = type { ptr, i32, i32, i32, [1 x i8], [1000 x i8] }

@.str.23 = private unnamed_addr constant [28 x i8] c"Invalid separator(s) found.\00", align 1

; Function Attrs: nounwind uwtable
define i32 @av_opt_serialize(ptr noundef %0, i32 noundef %1, i32 noundef %2, ptr noundef %3, i8 noundef signext %4, i8 noundef signext %5) #0 {
  %7 = alloca i32, align 4
  %8 = alloca ptr, align 8
  %9 = alloca i32, align 4
  %10 = alloca i32, align 4
  %11 = alloca ptr, align 8
  %12 = alloca i8, align 1
  %13 = alloca i8, align 1
  %14 = alloca %struct.AVBPrint, align 8
  %15 = alloca i32, align 4
  %16 = alloca i32, align 4
  %17 = alloca i32, align 4
  store ptr %0, ptr %8, align 8, !tbaa !4
  store i32 %1, ptr %9, align 4, !tbaa !20
  store i32 %2, ptr %10, align 4, !tbaa !20
  store ptr %3, ptr %11, align 8, !tbaa !63
  store i8 %4, ptr %12, align 1, !tbaa !35
  store i8 %5, ptr %13, align 1, !tbaa !35
  call void @llvm.lifetime.start.p0(i64 1024, ptr %14) #11
  call void @llvm.lifetime.start.p0(i64 4, ptr %15) #11
  call void @llvm.lifetime.start.p0(i64 4, ptr %16) #11
  store i32 0, ptr %16, align 4, !tbaa !20
  %18 = load i8, ptr %13, align 1, !tbaa !35
  %19 = sext i8 %18 to i32
  %20 = icmp eq i32 %19, 0
  br i1 %20, label %39, label %21

21:                                               ; preds = %6
  %22 = load i8, ptr %12, align 1, !tbaa !35
  %23 = sext i8 %22 to i32
  %24 = icmp eq i32 %23, 0
  br i1 %24, label %39, label %25

25:                                               ; preds = %21
  %26 = load i8, ptr %13, align 1, !tbaa !35
  %27 = sext i8 %26 to i32
  %28 = load i8, ptr %12, align 1, !tbaa !35
  %29 = sext i8 %28 to i32
  %30 = icmp eq i32 %27, %29
  br i1 %30, label %39, label %31

31:                                               ; preds = %25
  %32 = load i8, ptr %13, align 1, !tbaa !35
  %33 = sext i8 %32 to i32
  %34 = icmp eq i32 %33, 92
  br i1 %34, label %39, label %35

35:                                               ; preds = %31
  %36 = load i8, ptr %12, align 1, !tbaa !35
  %37 = sext i8 %36 to i32
  %38 = icmp eq i32 %37, 92
  br i1 %38, label %39, label %41

39:                                               ; preds = %35, %31, %25, %21, %6
  %40 = load ptr, ptr %8, align 8, !tbaa !4
  call void (ptr, i32, ptr, ...) @av_log(ptr noundef %40, i32 noundef 16, ptr noundef @.str.23)
  store i32 -22, ptr %7, align 4
  store i32 1, ptr %17, align 4
  br label %68

41:                                               ; preds = %35
  %42 = load ptr, ptr %8, align 8, !tbaa !4
  %43 = icmp ne ptr %42, null
  br i1 %43, label %44, label %47

44:                                               ; preds = %41
  %45 = load ptr, ptr %11, align 8, !tbaa !63
  %46 = icmp ne ptr %45, null
  br i1 %46, label %48, label %47

47:                                               ; preds = %44, %41
  store i32 -22, ptr %7, align 4
  store i32 1, ptr %17, align 4
  br label %68

48:                                               ; preds = %44
  %49 = load ptr, ptr %11, align 8, !tbaa !63
  store ptr null, ptr %49, align 8, !tbaa !19
  call void @av_bprint_init(ptr noundef %14, i32 noundef 64, i32 noundef -1)
  %50 = load ptr, ptr %8, align 8, !tbaa !4
  %51 = load i32, ptr %9, align 4, !tbaa !20
  %52 = load i32, ptr %10, align 4, !tbaa !20
  %53 = load i8, ptr %12, align 1, !tbaa !35
  %54 = load i8, ptr %13, align 1, !tbaa !35
  %55 = call i32 @opt_serialize(ptr noundef %50, i32 noundef %51, i32 noundef %52, ptr noundef %16, ptr noundef %14, i8 noundef signext %53, i8 noundef signext %54)
  store i32 %55, ptr %15, align 4, !tbaa !20
  %56 = load i32, ptr %15, align 4, !tbaa !20
  %57 = icmp slt i32 %56, 0
  br i1 %57, label %58, label %60

58:                                               ; preds = %48
  %59 = load i32, ptr %15, align 4, !tbaa !20
  store i32 %59, ptr %7, align 4
  store i32 1, ptr %17, align 4
  br label %68

60:                                               ; preds = %48
  %61 = load ptr, ptr %11, align 8, !tbaa !63
  %62 = call i32 @av_bprint_finalize(ptr noundef %14, ptr noundef %61)
  store i32 %62, ptr %15, align 4, !tbaa !20
  %63 = load i32, ptr %15, align 4, !tbaa !20
  %64 = icmp slt i32 %63, 0
  br i1 %64, label %65, label %67

65:                                               ; preds = %60
  %66 = load i32, ptr %15, align 4, !tbaa !20
  store i32 %66, ptr %7, align 4
  store i32 1, ptr %17, align 4
  br label %68

67:                                               ; preds = %60
  store i32 0, ptr %7, align 4
  store i32 1, ptr %17, align 4
  br label %68

68:                                               ; preds = %67, %65, %58, %47, %39
  call void @llvm.lifetime.end.p0(i64 4, ptr %16) #11
  call void @llvm.lifetime.end.p0(i64 4, ptr %15) #11
  call void @llvm.lifetime.end.p0(i64 1024, ptr %14) #11
  %69 = load i32, ptr %7, align 4
  ret i32 %69
}