; Function Attrs: nounwind uwtable
define range(i32 -2147483648, 1) i32 @av_opt_serialize(ptr noundef %0, i32 noundef %1, i32 noundef %2, ptr noundef %3, i8 noundef signext %4, i8 noundef signext %5) local_unnamed_addr #2 {
  %7 = alloca %struct.AVBPrint, align 8
  %8 = alloca i32, align 4
  call void @llvm.lifetime.start.p0(i64 1024, ptr nonnull %7) #18
  call void @llvm.lifetime.start.p0(i64 4, ptr nonnull %8) #18
  store i32 0, ptr %8, align 4, !tbaa !26
  %9 = icmp eq i8 %5, 0
  %10 = icmp eq i8 %4, 0
  %or.cond = or i1 %10, %9
  br i1 %or.cond, label %15, label %11

11:                                               ; preds = %6
  %12 = icmp eq i8 %5, %4
  %13 = icmp eq i8 %5, 92
  %or.cond5 = or i1 %12, %13
  %14 = icmp eq i8 %4, 92
  %or.cond8 = or i1 %14, %or.cond5
  br i1 %or.cond8, label %15, label %16

15:                                               ; preds = %11, %6
  tail call void (ptr, i32, ptr, ...) @av_log(ptr noundef %0, i32 noundef 16, ptr noundef nonnull @.str.23) #18
  br label %24

16:                                               ; preds = %11
  %17 = icmp ne ptr %0, null
  %18 = icmp ne ptr %3, null
  %or.cond10 = and i1 %17, %18
  br i1 %or.cond10, label %19, label %24

19:                                               ; preds = %16
  store ptr null, ptr %3, align 8, !tbaa !33
  call void @av_bprint_init(ptr noundef nonnull %7, i32 noundef 64, i32 noundef -1) #18
  %20 = call fastcc i32 @opt_serialize(ptr noundef %0, i32 noundef %1, i32 noundef %2, ptr noundef %8, ptr noundef %7, i8 noundef signext %4, i8 noundef signext %5)
  %21 = icmp slt i32 %20, 0
  br i1 %21, label %24, label %22

22:                                               ; preds = %19
  %23 = call i32 @av_bprint_finalize(ptr noundef nonnull %7, ptr noundef nonnull %3) #18
  %. = call i32 @llvm.smin.i32(i32 %23, i32 0)
  br label %24

24:                                               ; preds = %22, %19, %16, %15
  %.0 = phi i32 [ -22, %15 ], [ -22, %16 ], [ %20, %19 ], [ %., %22 ]
  call void @llvm.lifetime.end.p0(i64 4, ptr nonnull %8) #18
  call void @llvm.lifetime.end.p0(i64 1024, ptr nonnull %7) #18
  ret i32 %.0
}